target datalayout = "e-m:e-p270:32:32-p271:32:32-p272:64:64-i64:64-i128:128-f80:128-n8:16:32:64-S128"
target triple = "x86_64-pc-linux-gnu"

%struct.jv = type { i8, i8, i16, i32, %union.anon }
%union.anon = type { ptr }
%struct.jq_state = type { ptr, ptr, ptr, ptr, ptr, %struct.jv, %struct.stack, i32, i32, i32, %struct.jv, %struct.jv, i32, i32, i32, i32, i32, %struct.jv, %struct.jv, %struct.jv, ptr, ptr, ptr, ptr, ptr, ptr }
%struct.stack = type { ptr, i32, i32 }

; Function Attrs: nounwind uwtable
define internal void @stack_init(ptr noundef %0) #0 {
  %2 = alloca ptr, align 8
  store ptr %0, ptr %2, align 8, !tbaa !22
  %3 = load ptr, ptr %2, align 8, !tbaa !22
  %4 = getelementptr inbounds nuw %struct.stack, ptr %3, i32 0, i32 0
  store ptr null, ptr %4, align 8, !tbaa !28
  %5 = load ptr, ptr %2, align 8, !tbaa !22
  %6 = getelementptr inbounds nuw %struct.stack, ptr %5, i32 0, i32 1
  store i32 8, ptr %6, align 8, !tbaa !27
  %7 = load ptr, ptr %2, align 8, !tbaa !22
  %8 = getelementptr inbounds nuw %struct.stack, ptr %7, i32 0, i32 2
  store i32 0, ptr %8, align 4, !tbaa !26
  ret void
}

; Function Attrs: nounwind uwtable
define internal void @stack_reset(ptr noundef %0) #0 {
  %2 = alloca ptr, align 8
  %3 = alloca ptr, align 8
  store ptr %0, ptr %2, align 8, !tbaa !22
  %4 = load ptr, ptr %2, align 8, !tbaa !22
  %5 = getelementptr inbounds nuw %struct.stack, ptr %4, i32 0, i32 0
  %6 = load ptr, ptr %5, align 8, !tbaa !28
  %7 = icmp ne ptr %6, null
  br i1 %7, label %8, label %21

8:                                                ; preds = %1
  call void @llvm.lifetime.start.p0(i64 8, ptr %3) #7
  %9 = load ptr, ptr %2, align 8, !tbaa !22
  %10 = getelementptr inbounds nuw %struct.stack, ptr %9, i32 0, i32 0
  %11 = load ptr, ptr %10, align 8, !tbaa !28
  %12 = load ptr, ptr %2, align 8, !tbaa !22
  %13 = getelementptr inbounds nuw %struct.stack, ptr %12, i32 0, i32 1
  %14 = load i32, ptr %13, align 8, !tbaa !27
  %15 = sub nsw i32 0, %14
  %16 = add nsw i32 %15, 8
  %17 = sext i32 %16 to i64
  %18 = sub i64 0, %17
  %19 = getelementptr inbounds i8, ptr %11, i64 %18
  store ptr %19, ptr %3, align 8, !tbaa !100
  %20 = load ptr, ptr %3, align 8, !tbaa !100
  call void @free(ptr noundef %20) #7
  call void @llvm.lifetime.end.p0(i64 8, ptr %3) #7
  br label %21

21:                                               ; preds = %8, %1
  %22 = load ptr, ptr %2, align 8, !tbaa !22
  call void @stack_init(ptr noundef %22)
  ret void
}

; Function Attrs: nounwind uwtable
define internal void @jq_reset(ptr noundef %0) #0 {
  %2 = alloca ptr, align 8
  %3 = alloca %struct.jv, align 8
  %4 = alloca %struct.jv, align 8
  %5 = alloca %struct.jv, align 8
  %6 = alloca %struct.jv, align 8
  %7 = alloca %struct.jv, align 8
  store ptr %0, ptr %2, align 8, !tbaa !4
  br label %8

8:                                                ; preds = %12, %1
  %9 = load ptr, ptr %2, align 8, !tbaa !4
  %10 = call ptr @stack_restore(ptr noundef %9)
  %11 = icmp ne ptr %10, null
  br i1 %11, label %12, label %13

12:                                               ; preds = %8
  br label %8, !llvm.loop !97

13:                                               ; preds = %8
  %14 = load ptr, ptr %2, align 8, !tbaa !4
  %15 = getelementptr inbounds nuw %struct.jq_state, ptr %14, i32 0, i32 6
  call void @stack_reset(ptr noundef %15)
  %16 = load ptr, ptr %2, align 8, !tbaa !4
  %17 = getelementptr inbounds nuw %struct.jq_state, ptr %16, i32 0, i32 5
  %18 = getelementptr inbounds nuw { i64, ptr }, ptr %17, i32 0, i32 0
  %19 = load i64, ptr %18, align 8
  %20 = getelementptr inbounds nuw { i64, ptr }, ptr %17, i32 0, i32 1
  %21 = load ptr, ptr %20, align 8
  call void @jv_free(i64 %19, ptr %21)
  %22 = load ptr, ptr %2, align 8, !tbaa !4
  %23 = getelementptr inbounds nuw %struct.jq_state, ptr %22, i32 0, i32 5
  call void @llvm.lifetime.start.p0(i64 16, ptr %3) #7
  %24 = call { i64, ptr } @jv_null()
  %25 = getelementptr inbounds nuw { i64, ptr }, ptr %3, i32 0, i32 0
  %26 = extractvalue { i64, ptr } %24, 0
  store i64 %26, ptr %25, align 8
  %27 = getelementptr inbounds nuw { i64, ptr }, ptr %3, i32 0, i32 1
  %28 = extractvalue { i64, ptr } %24, 1
  store ptr %28, ptr %27, align 8
  call void @llvm.memcpy.p0.p0.i64(ptr align 8 %23, ptr align 8 %3, i64 16, i1 false), !tbaa.struct !18
  call void @llvm.lifetime.end.p0(i64 16, ptr %3) #7
  %29 = load ptr, ptr %2, align 8, !tbaa !4
  %30 = getelementptr inbounds nuw %struct.jq_state, ptr %29, i32 0, i32 16
  store i32 0, ptr %30, align 8, !tbaa !60
  %31 = load ptr, ptr %2, align 8, !tbaa !4
  %32 = getelementptr inbounds nuw %struct.jq_state, ptr %31, i32 0, i32 17
  %33 = getelementptr inbounds nuw { i64, ptr }, ptr %32, i32 0, i32 0
  %34 = load i64, ptr %33, align 8
  %35 = getelementptr inbounds nuw { i64, ptr }, ptr %32, i32 0, i32 1
  %36 = load ptr, ptr %35, align 8
  call void @jv_free(i64 %34, ptr %36)
  %37 = load ptr, ptr %2, align 8, !tbaa !4
  %38 = getelementptr inbounds nuw %struct.jq_state, ptr %37, i32 0, i32 17
  call void @llvm.lifetime.start.p0(i64 16, ptr %4) #7
  %39 = call { i64, ptr } @jv_invalid()
  %40 = getelementptr inbounds nuw { i64, ptr }, ptr %4, i32 0, i32 0
  %41 = extractvalue { i64, ptr } %39, 0
  store i64 %41, ptr %40, align 8
  %42 = getelementptr inbounds nuw { i64, ptr }, ptr %4, i32 0, i32 1
  %43 = extractvalue { i64, ptr } %39, 1
  store ptr %43, ptr %42, align 8
  call void @llvm.memcpy.p0.p0.i64(ptr align 8 %38, ptr align 8 %4, i64 16, i1 false), !tbaa.struct !18
  call void @llvm.lifetime.end.p0(i64 16, ptr %4) #7
  %44 = load ptr, ptr %2, align 8, !tbaa !4
  %45 = getelementptr inbounds nuw %struct.jq_state, ptr %44, i32 0, i32 18
  %46 = getelementptr inbounds nuw { i64, ptr }, ptr %45, i32 0, i32 0
  %47 = load i64, ptr %46, align 8
  %48 = getelementptr inbounds nuw { i64, ptr }, ptr %45, i32 0, i32 1
  %49 = load ptr, ptr %48, align 8
  call void @jv_free(i64 %47, ptr %49)
  %50 = load ptr, ptr %2, align 8, !tbaa !4
  %51 = getelementptr inbounds nuw %struct.jq_state, ptr %50, i32 0, i32 18
  call void @llvm.lifetime.start.p0(i64 16, ptr %5) #7
  %52 = call { i64, ptr } @jv_invalid()
  %53 = getelementptr inbounds nuw { i64, ptr }, ptr %5, i32 0, i32 0
  %54 = extractvalue { i64, ptr } %52, 0
  store i64 %54, ptr %53, align 8
  %55 = getelementptr inbounds nuw { i64, ptr }, ptr %5, i32 0, i32 1
  %56 = extractvalue { i64, ptr } %52, 1
  store ptr %56, ptr %55, align 8
  call void @llvm.memcpy.p0.p0.i64(ptr align 8 %51, ptr align 8 %5, i64 16, i1 false), !tbaa.struct !18
  call void @llvm.lifetime.end.p0(i64 16, ptr %5) #7
  %57 = load ptr, ptr %2, align 8, !tbaa !4
  %58 = getelementptr inbounds nuw %struct.jq_state, ptr %57, i32 0, i32 10
  %59 = getelementptr inbounds nuw { i64, ptr }, ptr %58, i32 0, i32 0
  %60 = load i64, ptr %59, align 8
  %61 = getelementptr inbounds nuw { i64, ptr }, ptr %58, i32 0, i32 1
  %62 = load ptr, ptr %61, align 8
  %63 = call i32 @jv_get_kind(i64 %60, ptr %62)
  %64 = icmp ne i32 %63, 0
  br i1 %64, label %65, label %72

65:                                               ; preds = %13
  %66 = load ptr, ptr %2, align 8, !tbaa !4
  %67 = getelementptr inbounds nuw %struct.jq_state, ptr %66, i32 0, i32 10
  %68 = getelementptr inbounds nuw { i64, ptr }, ptr %67, i32 0, i32 0
  %69 = load i64, ptr %68, align 8
  %70 = getelementptr inbounds nuw { i64, ptr }, ptr %67, i32 0, i32 1
  %71 = load ptr, ptr %70, align 8
  call void @jv_free(i64 %69, ptr %71)
  br label %72

72:                                               ; preds = %65, %13
  %73 = load ptr, ptr %2, align 8, !tbaa !4
  %74 = getelementptr inbounds nuw %struct.jq_state, ptr %73, i32 0, i32 10
  call void @llvm.lifetime.start.p0(i64 16, ptr %6) #7
  %75 = call { i64, ptr } @jv_null()
  %76 = getelementptr inbounds nuw { i64, ptr }, ptr %6, i32 0, i32 0
  %77 = extractvalue { i64, ptr } %75, 0
  store i64 %77, ptr %76, align 8
  %78 = getelementptr inbounds nuw { i64, ptr }, ptr %6, i32 0, i32 1
  %79 = extractvalue { i64, ptr } %75, 1
  store ptr %79, ptr %78, align 8
  call void @llvm.memcpy.p0.p0.i64(ptr align 8 %74, ptr align 8 %6, i64 16, i1 false), !tbaa.struct !18
  call void @llvm.lifetime.end.p0(i64 16, ptr %6) #7
  %80 = load ptr, ptr %2, align 8, !tbaa !4
  %81 = getelementptr inbounds nuw %struct.jq_state, ptr %80, i32 0, i32 11
  %82 = getelementptr inbounds nuw { i64, ptr }, ptr %81, i32 0, i32 0
  %83 = load i64, ptr %82, align 8
  %84 = getelementptr inbounds nuw { i64, ptr }, ptr %81, i32 0, i32 1
  %85 = load ptr, ptr %84, align 8
  call void @jv_free(i64 %83, ptr %85)
  %86 = load ptr, ptr %2, align 8, !tbaa !4
  %87 = getelementptr inbounds nuw %struct.jq_state, ptr %86, i32 0, i32 11
  call void @llvm.lifetime.start.p0(i64 16, ptr %7) #7
  %88 = call { i64, ptr } @jv_null()
  %89 = getelementptr inbounds nuw { i64, ptr }, ptr %7, i32 0, i32 0
  %90 = extractvalue { i64, ptr } %88, 0
  store i64 %90, ptr %89, align 8
  %91 = getelementptr inbounds nuw { i64, ptr }, ptr %7, i32 0, i32 1
  %92 = extractvalue { i64, ptr } %88, 1
  store ptr %92, ptr %91, align 8
  call void @llvm.memcpy.p0.p0.i64(ptr align 8 %87, ptr align 8 %7, i64 16, i1 false), !tbaa.struct !18
  call void @llvm.lifetime.end.p0(i64 16, ptr %7) #7
  %93 = load ptr, ptr %2, align 8, !tbaa !4
  %94 = getelementptr inbounds nuw %struct.jq_state, ptr %93, i32 0, i32 12
  store i32 0, ptr %94, align 8, !tbaa !42
  ret void
}