; Function Attrs: nounwind uwtable
define internal fastcc void @jq_reset(ptr noundef captures(none) %0) unnamed_addr #0 {
  br label %2

2:                                                ; preds = %2, %1
  %3 = tail call ptr @stack_restore(ptr noundef %0)
  %.not = icmp eq ptr %3, null
  br i1 %.not, label %4, label %2, !llvm.loop !70

4:                                                ; preds = %2
  %5 = getelementptr inbounds nuw i8, ptr %0, i64 56
  %6 = load ptr, ptr %5, align 8, !tbaa !17
  %.not.i = icmp eq ptr %6, null
  br i1 %.not.i, label %stack_reset.exit, label %7

7:                                                ; preds = %4
  %8 = getelementptr inbounds nuw i8, ptr %0, i64 64
  %9 = load i32, ptr %8, align 8, !tbaa !16
  %10 = sub i32 8, %9
  %11 = sext i32 %10 to i64
  %12 = sub nsw i64 0, %11
  %13 = getelementptr inbounds i8, ptr %6, i64 %12
  tail call void @free(ptr noundef %13) #13
  br label %stack_reset.exit

stack_reset.exit:                                 ; preds = %4, %7
  store ptr null, ptr %5, align 8, !tbaa !17
  %14 = getelementptr inbounds nuw i8, ptr %0, i64 64
  store i32 8, ptr %14, align 8, !tbaa !16
  %15 = getelementptr inbounds nuw i8, ptr %0, i64 68
  store i32 0, ptr %15, align 4, !tbaa !15
  %16 = getelementptr inbounds nuw i8, ptr %0, i64 40
  %17 = load i64, ptr %16, align 8
  %18 = getelementptr inbounds nuw i8, ptr %0, i64 48
  %19 = load ptr, ptr %18, align 8
  tail call void @jv_free(i64 %17, ptr %19) #13
  %20 = tail call { i64, ptr } @jv_null() #13
  %21 = extractvalue { i64, ptr } %20, 0
  %22 = extractvalue { i64, ptr } %20, 1
  store i64 %21, ptr %16, align 8
  store ptr %22, ptr %18, align 8, !tbaa !19
  %23 = getelementptr inbounds nuw i8, ptr %0, i64 136
  store i32 0, ptr %23, align 8, !tbaa !46
  %24 = getelementptr inbounds nuw i8, ptr %0, i64 144
  %25 = load i64, ptr %24, align 8
  %26 = getelementptr inbounds nuw i8, ptr %0, i64 152
  %27 = load ptr, ptr %26, align 8
  tail call void @jv_free(i64 %25, ptr %27) #13
  %28 = tail call { i64, ptr } @jv_invalid() #13
  %29 = extractvalue { i64, ptr } %28, 0
  %30 = extractvalue { i64, ptr } %28, 1
  store i64 %29, ptr %24, align 8
  store ptr %30, ptr %26, align 8, !tbaa !19
  %31 = getelementptr inbounds nuw i8, ptr %0, i64 160
  %32 = load i64, ptr %31, align 8
  %33 = getelementptr inbounds nuw i8, ptr %0, i64 168
  %34 = load ptr, ptr %33, align 8
  tail call void @jv_free(i64 %32, ptr %34) #13
  %35 = tail call { i64, ptr } @jv_invalid() #13
  %36 = extractvalue { i64, ptr } %35, 0
  %37 = extractvalue { i64, ptr } %35, 1
  store i64 %36, ptr %31, align 8
  store ptr %37, ptr %33, align 8, !tbaa !19
  %38 = getelementptr inbounds nuw i8, ptr %0, i64 88
  %39 = load i64, ptr %38, align 8
  %40 = getelementptr inbounds nuw i8, ptr %0, i64 96
  %41 = load ptr, ptr %40, align 8
  %42 = tail call i32 @jv_get_kind(i64 %39, ptr %41) #13
  %.not23 = icmp eq i32 %42, 0
  br i1 %.not23, label %46, label %43

43:                                               ; preds = %stack_reset.exit
  %44 = load i64, ptr %38, align 8
  %45 = load ptr, ptr %40, align 8
  tail call void @jv_free(i64 %44, ptr %45) #13
  br label %46

46:                                               ; preds = %43, %stack_reset.exit
  %47 = tail call { i64, ptr } @jv_null() #13
  %48 = extractvalue { i64, ptr } %47, 0
  %49 = extractvalue { i64, ptr } %47, 1
  store i64 %48, ptr %38, align 8
  store ptr %49, ptr %40, align 8, !tbaa !19
  %50 = getelementptr inbounds nuw i8, ptr %0, i64 104
  %51 = load i64, ptr %50, align 8
  %52 = getelementptr inbounds nuw i8, ptr %0, i64 112
  %53 = load ptr, ptr %52, align 8
  tail call void @jv_free(i64 %51, ptr %53) #13
  %54 = tail call { i64, ptr } @jv_null() #13
  %55 = extractvalue { i64, ptr } %54, 0
  %56 = extractvalue { i64, ptr } %54, 1
  store i64 %55, ptr %50, align 8
  store ptr %56, ptr %52, align 8, !tbaa !19
  %57 = getelementptr inbounds nuw i8, ptr %0, i64 120
  store i32 0, ptr %57, align 8, !tbaa !27
  ret void
}